target datalayout = "e-m:e-p270:32:32-p271:32:32-p272:64:64-i64:64-i128:128-f80:128-n8:16:32:64-S128"
target triple = "x86_64-pc-linux-gnu"

%struct.testVector = type { ptr, ptr, i64, i64 }
%union.wc_Hashes = type { %struct.wc_Sha3 }
%struct.wc_Sha3 = type { [25 x i64], [200 x i8], i8, ptr }
%struct.Hmac = type { %union.wc_Hashes, [36 x i32], [36 x i32], [16 x i32], ptr, i8, i8 }

@devId = internal global i32 -2, align 4
@.str.148 = private unnamed_addr constant [9 x i8] c"Hi There\00", align 1
@.str.150 = private unnamed_addr constant [29 x i8] c"what do ya want for nothing?\00", align 1
@.str.152 = private unnamed_addr constant [51 x i8] c"\DD\DD\DD\DD\DD\DD\DD\DD\DD\DD\DD\DD\DD\DD\DD\DD\DD\DD\DD\DD\DD\DD\DD\DD\DD\DD\DD\DD\DD\DD\DD\DD\DD\DD\DD\DD\DD\DD\DD\DD\DD\DD\DD\DD\DD\DD\DD\DD\DD\DD\00", align 1
@.str.154 = private unnamed_addr constant [55 x i8] c"Test Using Larger Than Block-Size Key - Hash Key First\00", align 1
@__const.hmac_sha_test.keys = private unnamed_addr constant [4 x ptr] [ptr @.str.156, ptr @.str.145, ptr @.str.157, ptr @.str.147], align 16
@.str.158 = private unnamed_addr constant [21 x i8] c"\B6\171\86U\05rd\E2\8B\C0\B6\FB7\8C\8E\F1F\BE\00\00", align 1
@.str.159 = private unnamed_addr constant [21 x i8] c"\EF\FC\DFj\E5\EB/\A2\D2t\16\D5\F1\84\DF\9C%\9A|y\00", align 1
@.str.160 = private unnamed_addr constant [21 x i8] c"\12]sB\B9\AC\11\CD\91\A3\9A\F4\8A\A1{Oc\F1u\D3\00", align 1
@.str.161 = private unnamed_addr constant [21 x i8] c"\AAJ\E5\E1Rr\D0\0E\95pV7\CE\8A;U\ED@!\12\00", align 1

; Function Attrs: nounwind uwtable
define dso_local i32 @hmac_sha_test() #0 {
  %1 = alloca i32, align 4
  %2 = alloca %struct.Hmac, align 16
  %3 = alloca [20 x i8], align 16
  %4 = alloca [4 x ptr], align 16
  %5 = alloca %struct.testVector, align 8
  %6 = alloca %struct.testVector, align 8
  %7 = alloca %struct.testVector, align 8
  %8 = alloca %struct.testVector, align 8
  %9 = alloca [4 x %struct.testVector], align 16
  %10 = alloca i32, align 4
  %11 = alloca i32, align 4
  %12 = alloca i32, align 4
  %13 = alloca i32, align 4
  call void @llvm.lifetime.start.p0(i64 784, ptr %2) #10
  call void @llvm.lifetime.start.p0(i64 20, ptr %3) #10
  call void @llvm.lifetime.start.p0(i64 32, ptr %4) #10
  call void @llvm.memcpy.p0.p0.i64(ptr align 16 %4, ptr align 16 @__const.hmac_sha_test.keys, i64 32, i1 false)
  call void @llvm.lifetime.start.p0(i64 32, ptr %5) #10
  call void @llvm.lifetime.start.p0(i64 32, ptr %6) #10
  call void @llvm.lifetime.start.p0(i64 32, ptr %7) #10
  call void @llvm.lifetime.start.p0(i64 32, ptr %8) #10
  call void @llvm.lifetime.start.p0(i64 128, ptr %9) #10
  call void @llvm.lifetime.start.p0(i64 4, ptr %10) #10
  call void @llvm.lifetime.start.p0(i64 4, ptr %11) #10
  store i32 4, ptr %11, align 4, !tbaa !14
  call void @llvm.lifetime.start.p0(i64 4, ptr %12) #10
  br label %14

14:                                               ; preds = %0
  br label %15

15:                                               ; preds = %14
  br label %16

16:                                               ; preds = %15
  %17 = getelementptr inbounds nuw %struct.testVector, ptr %5, i32 0, i32 0
  store ptr @.str.148, ptr %17, align 8, !tbaa !32
  %18 = getelementptr inbounds nuw %struct.testVector, ptr %5, i32 0, i32 1
  store ptr @.str.158, ptr %18, align 8, !tbaa !34
  %19 = getelementptr inbounds nuw %struct.testVector, ptr %5, i32 0, i32 0
  %20 = load ptr, ptr %19, align 8, !tbaa !32
  %21 = call i64 @strlen(ptr noundef %20) #11
  %22 = getelementptr inbounds nuw %struct.testVector, ptr %5, i32 0, i32 2
  store i64 %21, ptr %22, align 8, !tbaa !35
  %23 = getelementptr inbounds nuw %struct.testVector, ptr %5, i32 0, i32 3
  store i64 20, ptr %23, align 8, !tbaa !36
  %24 = getelementptr inbounds nuw %struct.testVector, ptr %6, i32 0, i32 0
  store ptr @.str.150, ptr %24, align 8, !tbaa !32
  %25 = getelementptr inbounds nuw %struct.testVector, ptr %6, i32 0, i32 1
  store ptr @.str.159, ptr %25, align 8, !tbaa !34
  %26 = getelementptr inbounds nuw %struct.testVector, ptr %6, i32 0, i32 0
  %27 = load ptr, ptr %26, align 8, !tbaa !32
  %28 = call i64 @strlen(ptr noundef %27) #11
  %29 = getelementptr inbounds nuw %struct.testVector, ptr %6, i32 0, i32 2
  store i64 %28, ptr %29, align 8, !tbaa !35
  %30 = getelementptr inbounds nuw %struct.testVector, ptr %6, i32 0, i32 3
  store i64 20, ptr %30, align 8, !tbaa !36
  %31 = getelementptr inbounds nuw %struct.testVector, ptr %7, i32 0, i32 0
  store ptr @.str.152, ptr %31, align 8, !tbaa !32
  %32 = getelementptr inbounds nuw %struct.testVector, ptr %7, i32 0, i32 1
  store ptr @.str.160, ptr %32, align 8, !tbaa !34
  %33 = getelementptr inbounds nuw %struct.testVector, ptr %7, i32 0, i32 0
  %34 = load ptr, ptr %33, align 8, !tbaa !32
  %35 = call i64 @strlen(ptr noundef %34) #11
  %36 = getelementptr inbounds nuw %struct.testVector, ptr %7, i32 0, i32 2
  store i64 %35, ptr %36, align 8, !tbaa !35
  %37 = getelementptr inbounds nuw %struct.testVector, ptr %7, i32 0, i32 3
  store i64 20, ptr %37, align 8, !tbaa !36
  %38 = getelementptr inbounds nuw %struct.testVector, ptr %8, i32 0, i32 0
  store ptr @.str.154, ptr %38, align 8, !tbaa !32
  %39 = getelementptr inbounds nuw %struct.testVector, ptr %8, i32 0, i32 1
  store ptr @.str.161, ptr %39, align 8, !tbaa !34
  %40 = getelementptr inbounds nuw %struct.testVector, ptr %8, i32 0, i32 0
  %41 = load ptr, ptr %40, align 8, !tbaa !32
  %42 = call i64 @strlen(ptr noundef %41) #11
  %43 = getelementptr inbounds nuw %struct.testVector, ptr %8, i32 0, i32 2
  store i64 %42, ptr %43, align 8, !tbaa !35
  %44 = getelementptr inbounds nuw %struct.testVector, ptr %8, i32 0, i32 3
  store i64 20, ptr %44, align 8, !tbaa !36
  %45 = getelementptr inbounds [4 x %struct.testVector], ptr %9, i64 0, i64 0
  call void @llvm.memcpy.p0.p0.i64(ptr align 16 %45, ptr align 8 %5, i64 32, i1 false), !tbaa.struct !37
  %46 = getelementptr inbounds [4 x %struct.testVector], ptr %9, i64 0, i64 1
  call void @llvm.memcpy.p0.p0.i64(ptr align 16 %46, ptr align 8 %6, i64 32, i1 false), !tbaa.struct !37
  %47 = getelementptr inbounds [4 x %struct.testVector], ptr %9, i64 0, i64 2
  call void @llvm.memcpy.p0.p0.i64(ptr align 16 %47, ptr align 8 %7, i64 32, i1 false), !tbaa.struct !37
  %48 = getelementptr inbounds [4 x %struct.testVector], ptr %9, i64 0, i64 3
  call void @llvm.memcpy.p0.p0.i64(ptr align 16 %48, ptr align 8 %8, i64 32, i1 false), !tbaa.struct !37
  store i32 0, ptr %12, align 4, !tbaa !14
  br label %49

49:                                               ; preds = %160, %16
  %50 = load i32, ptr %12, align 4, !tbaa !14
  %51 = load i32, ptr %11, align 4, !tbaa !14
  %52 = icmp slt i32 %50, %51
  br i1 %52, label %53, label %163

53:                                               ; preds = %49
  %54 = load i32, ptr @devId, align 4, !tbaa !14
  %55 = call i32 @wc_HmacInit(ptr noundef %2, ptr noundef null, i32 noundef %54)
  store i32 %55, ptr %10, align 4, !tbaa !14
  %56 = icmp ne i32 %55, 0
  br i1 %56, label %57, label %69

57:                                               ; preds = %53
  %58 = load i32, ptr %10, align 4, !tbaa !14
  %59 = sub nsw i32 0, %58
  %60 = zext i32 %59 to i64
  %61 = and i64 %60, 2047
  %62 = trunc i64 %61 to i32
  %63 = sext i32 %62 to i64
  %64 = mul nsw i64 %63, 100000
  %65 = add nsw i64 6561, %64
  %66 = add nsw i64 %65, 536870912
  %67 = sub nsw i64 0, %66
  %68 = trunc i64 %67 to i32
  store i32 %68, ptr %1, align 4
  store i32 1, ptr %13, align 4
  br label %179

69:                                               ; preds = %53
  %70 = load i32, ptr %12, align 4, !tbaa !14
  %71 = sext i32 %70 to i64
  %72 = getelementptr inbounds [4 x ptr], ptr %4, i64 0, i64 %71
  %73 = load ptr, ptr %72, align 8, !tbaa !15
  %74 = load i32, ptr %12, align 4, !tbaa !14
  %75 = sext i32 %74 to i64
  %76 = getelementptr inbounds [4 x ptr], ptr %4, i64 0, i64 %75
  %77 = load ptr, ptr %76, align 8, !tbaa !15
  %78 = call i64 @strlen(ptr noundef %77) #11
  %79 = trunc i64 %78 to i32
  %80 = call i32 @wc_HmacSetKey(ptr noundef %2, i32 noundef 4, ptr noundef %73, i32 noundef %79)
  store i32 %80, ptr %10, align 4, !tbaa !14
  %81 = load i32, ptr %10, align 4, !tbaa !14
  %82 = icmp ne i32 %81, 0
  br i1 %82, label %83, label %95

83:                                               ; preds = %69
  %84 = load i32, ptr %10, align 4, !tbaa !14
  %85 = sub nsw i32 0, %84
  %86 = zext i32 %85 to i64
  %87 = and i64 %86, 2047
  %88 = trunc i64 %87 to i32
  %89 = sext i32 %88 to i64
  %90 = mul nsw i64 %89, 100000
  %91 = add nsw i64 6575, %90
  %92 = add nsw i64 %91, 536870912
  %93 = sub nsw i64 0, %92
  %94 = trunc i64 %93 to i32
  store i32 %94, ptr %1, align 4
  store i32 1, ptr %13, align 4
  br label %179

95:                                               ; preds = %69
  %96 = load i32, ptr %12, align 4, !tbaa !14
  %97 = sext i32 %96 to i64
  %98 = getelementptr inbounds [4 x %struct.testVector], ptr %9, i64 0, i64 %97
  %99 = getelementptr inbounds nuw %struct.testVector, ptr %98, i32 0, i32 0
  %100 = load ptr, ptr %99, align 16, !tbaa !32
  %101 = load i32, ptr %12, align 4, !tbaa !14
  %102 = sext i32 %101 to i64
  %103 = getelementptr inbounds [4 x %struct.testVector], ptr %9, i64 0, i64 %102
  %104 = getelementptr inbounds nuw %struct.testVector, ptr %103, i32 0, i32 2
  %105 = load i64, ptr %104, align 16, !tbaa !35
  %106 = trunc i64 %105 to i32
  %107 = call i32 @wc_HmacUpdate(ptr noundef %2, ptr noundef %100, i32 noundef %106)
  store i32 %107, ptr %10, align 4, !tbaa !14
  %108 = load i32, ptr %10, align 4, !tbaa !14
  %109 = icmp ne i32 %108, 0
  br i1 %109, label %110, label %122

110:                                              ; preds = %95
  %111 = load i32, ptr %10, align 4, !tbaa !14
  %112 = sub nsw i32 0, %111
  %113 = zext i32 %112 to i64
  %114 = and i64 %113, 2047
  %115 = trunc i64 %114 to i32
  %116 = sext i32 %115 to i64
  %117 = mul nsw i64 %116, 100000
  %118 = add nsw i64 6579, %117
  %119 = add nsw i64 %118, 536870912
  %120 = sub nsw i64 0, %119
  %121 = trunc i64 %120 to i32
  store i32 %121, ptr %1, align 4
  store i32 1, ptr %13, align 4
  br label %179

122:                                              ; preds = %95
  %123 = getelementptr inbounds [20 x i8], ptr %3, i64 0, i64 0
  %124 = call i32 @wc_HmacFinal(ptr noundef %2, ptr noundef %123)
  store i32 %124, ptr %10, align 4, !tbaa !14
  %125 = load i32, ptr %10, align 4, !tbaa !14
  %126 = icmp ne i32 %125, 0
  br i1 %126, label %127, label %139

127:                                              ; preds = %122
  %128 = load i32, ptr %10, align 4, !tbaa !14
  %129 = sub nsw i32 0, %128
  %130 = zext i32 %129 to i64
  %131 = and i64 %130, 2047
  %132 = trunc i64 %131 to i32
  %133 = sext i32 %132 to i64
  %134 = mul nsw i64 %133, 100000
  %135 = add nsw i64 6582, %134
  %136 = add nsw i64 %135, 536870912
  %137 = sub nsw i64 0, %136
  %138 = trunc i64 %137 to i32
  store i32 %138, ptr %1, align 4
  store i32 1, ptr %13, align 4
  br label %179

139:                                              ; preds = %122
  %140 = getelementptr inbounds [20 x i8], ptr %3, i64 0, i64 0
  %141 = load i32, ptr %12, align 4, !tbaa !14
  %142 = sext i32 %141 to i64
  %143 = getelementptr inbounds [4 x %struct.testVector], ptr %9, i64 0, i64 %142
  %144 = getelementptr inbounds nuw %struct.testVector, ptr %143, i32 0, i32 1
  %145 = load ptr, ptr %144, align 8, !tbaa !34
  %146 = call i32 @memcmp(ptr noundef %140, ptr noundef %145, i64 noundef 20) #11
  %147 = icmp ne i32 %146, 0
  br i1 %147, label %148, label %159

148:                                              ; preds = %139
  %149 = load i32, ptr %12, align 4, !tbaa !14
  %150 = zext i32 %149 to i64
  %151 = and i64 %150, 2047
  %152 = trunc i64 %151 to i32
  %153 = sext i32 %152 to i64
  %154 = mul nsw i64 %153, 100000
  %155 = add nsw i64 6585, %154
  %156 = add nsw i64 %155, 1610612736
  %157 = sub nsw i64 0, %156
  %158 = trunc i64 %157 to i32
  store i32 %158, ptr %1, align 4
  store i32 1, ptr %13, align 4
  br label %179

159:                                              ; preds = %139
  call void @wc_HmacFree(ptr noundef %2)
  br label %160

160:                                              ; preds = %159
  %161 = load i32, ptr %12, align 4, !tbaa !14
  %162 = add nsw i32 %161, 1
  store i32 %162, ptr %12, align 4, !tbaa !14
  br label %49, !llvm.loop !67

163:                                              ; preds = %49
  %164 = call i32 @wc_HmacSizeByType(i32 noundef 4)
  store i32 %164, ptr %10, align 4, !tbaa !14
  %165 = icmp ne i32 %164, 20
  br i1 %165, label %166, label %178

166:                                              ; preds = %163
  %167 = load i32, ptr %10, align 4, !tbaa !14
  %168 = sub nsw i32 0, %167
  %169 = zext i32 %168 to i64
  %170 = and i64 %169, 2047
  %171 = trunc i64 %170 to i32
  %172 = sext i32 %171 to i64
  %173 = mul nsw i64 %172, 100000
  %174 = add nsw i64 6592, %173
  %175 = add nsw i64 %174, 536870912
  %176 = sub nsw i64 0, %175
  %177 = trunc i64 %176 to i32
  store i32 %177, ptr %1, align 4
  store i32 1, ptr %13, align 4
  br label %179

178:                                              ; preds = %163
  store i32 0, ptr %1, align 4
  store i32 1, ptr %13, align 4
  br label %179

179:                                              ; preds = %178, %166, %148, %127, %110, %83, %57
  call void @llvm.lifetime.end.p0(i64 4, ptr %12) #10
  call void @llvm.lifetime.end.p0(i64 4, ptr %11) #10
  call void @llvm.lifetime.end.p0(i64 4, ptr %10) #10
  call void @llvm.lifetime.end.p0(i64 128, ptr %9) #10
  call void @llvm.lifetime.end.p0(i64 32, ptr %8) #10
  call void @llvm.lifetime.end.p0(i64 32, ptr %7) #10
  call void @llvm.lifetime.end.p0(i64 32, ptr %6) #10
  call void @llvm.lifetime.end.p0(i64 32, ptr %5) #10
  call void @llvm.lifetime.end.p0(i64 32, ptr %4) #10
  call void @llvm.lifetime.end.p0(i64 20, ptr %3) #10
  call void @llvm.lifetime.end.p0(i64 784, ptr %2) #10
  %180 = load i32, ptr %1, align 4
  ret i32 %180
}